target datalayout = "e-m:e-p270:32:32-p271:32:32-p272:64:64-i64:64-i128:128-f80:128-n8:16:32:64-S128"
target triple = "x86_64-pc-linux-gnu"

%struct._zend_executor_globals = type { %struct._zval_struct, %struct._zval_struct, [32 x ptr], ptr, ptr, %struct._zend_array, %struct._zend_array, ptr, i32, i8, %struct._zval_struct, i32, ptr, ptr, ptr, ptr, ptr, ptr, i64, ptr, ptr, i32, ptr, i32, i64, i32, i32, i32, i8, i8, %struct.zend_atomic_bool_s, %struct.zend_atomic_bool_s, ptr, i64, ptr, ptr, %struct._zend_array, %struct._zend_array, i32, i8, %struct._zval_struct, %struct._zval_struct, %struct._zend_stack, %struct._zend_stack, %struct._zend_stack, ptr, i32, i32, i64, ptr, ptr, ptr, %struct._zend_objects_store, %struct._zend_lazy_objects_store, ptr, ptr, ptr, [3 x %struct._zend_op], ptr, i8, i8, i64, i32, i32, ptr, [16 x %struct._HashTableIterator], ptr, %union._zend_function, %struct._zend_op, %struct._zend_array, i64, %struct.zend_get_gc_buffer, ptr, ptr, ptr, i64, i8, i32, ptr, ptr, i64, %struct._zend_call_stack, i64, i64, %struct._zend_strtod_state, [6 x ptr] }
%struct.zend_atomic_bool_s = type { i8 }
%struct._zval_struct = type { %union._zend_value, %union.anon, %union.anon.2 }
%union._zend_value = type { i64 }
%union.anon = type { i32 }
%union.anon.2 = type { i32 }
%struct._zend_stack = type { i32, i32, i32, ptr }
%struct._zend_objects_store = type { ptr, i32, i32, i32 }
%struct._zend_lazy_objects_store = type { %struct._zend_array }
%struct._HashTableIterator = type { ptr, i32, i32 }
%union._zend_function = type { %struct._zend_op_array }
%struct._zend_op_array = type { i8, [3 x i8], i32, ptr, ptr, ptr, i32, i32, ptr, ptr, ptr, ptr, i32, ptr, i32, i32, i32, ptr, ptr, ptr, ptr, ptr, i32, i32, ptr, ptr, ptr, i32, i32, i32, i32, ptr, ptr, [6 x ptr] }
%struct._zend_op = type { ptr, %union._znode_op, %union._znode_op, %union._znode_op, i32, i32, i8, i8, i8, i8 }
%union._znode_op = type { i32 }
%struct._zend_array = type { %struct._zend_refcounted_h, %union.anon.4, i32, %union.anon.6, i32, i32, i32, i32, i64, ptr }
%struct._zend_refcounted_h = type { i32, %union.anon.3 }
%union.anon.3 = type { i32 }
%union.anon.4 = type { i32 }
%union.anon.6 = type { ptr }
%struct.zend_get_gc_buffer = type { ptr, ptr, ptr }
%struct._zend_call_stack = type { ptr, i64 }
%struct._zend_strtod_state = type { [8 x ptr], ptr, ptr }
%struct._zend_class_entry = type { i8, ptr, %union.anon.8, i32, i32, i32, i32, ptr, ptr, ptr, %struct._zend_array, %struct._zend_array, %struct._zend_array, ptr, ptr, ptr, ptr, ptr, ptr, ptr, ptr, ptr, ptr, ptr, ptr, ptr, ptr, ptr, ptr, ptr, ptr, ptr, %union.anon.9, ptr, ptr, ptr, ptr, i32, i32, i32, i32, %union.anon.10, ptr, ptr, ptr, ptr, i32, ptr, ptr, %union.anon.11 }
%union.anon.8 = type { ptr }
%union.anon.9 = type { ptr }
%union.anon.10 = type { ptr }
%union.anon.11 = type { %struct.anon.12 }
%struct.anon.12 = type { ptr, i32, i32 }
%struct._zend_execute_data = type { ptr, ptr, ptr, ptr, %struct._zval_struct, ptr, ptr, ptr, ptr }
%struct._pdo_dbh_t = type { ptr, ptr, ptr, ptr, i32, ptr, i64, [6 x i8], i32, i32, i32, ptr, i64, i32, [2 x ptr], ptr, ptr, %struct._zval_struct, ptr, ptr, i32 }
%struct._zend_object = type { %struct._zend_refcounted_h, i32, i32, ptr, ptr, ptr, [1 x %struct._zval_struct] }
%struct._zend_string = type { %struct._zend_refcounted_h, i64, i64, [1 x i8] }
%struct.pdo_sqlite_db_handle = type { ptr, %struct.pdo_sqlite_error_info, ptr, ptr }
%struct.pdo_sqlite_error_info = type { ptr, i32, i32, ptr }
%struct._pdo_dbh_object_t = type { ptr, %struct._zend_object }
%struct.php_stream_pdosqlite3_data = type { ptr, i64, i64, i32 }
%struct._php_stream = type { ptr, ptr, %struct._php_stream_filter_chain, %struct._php_stream_filter_chain, ptr, ptr, %struct._zval_struct, i16, [16 x i8], i32, ptr, ptr, ptr, ptr, i64, ptr, i64, i64, i64, i64, ptr }
%struct._php_stream_filter_chain = type { ptr, ptr, ptr }

@executor_globals = external global %struct._zend_executor_globals, align 8
@.str.4 = private unnamed_addr constant [27 x i8] c"%s object is uninitialized\00", align 1
@.str.6 = private unnamed_addr constant [5 x i8] c"main\00", align 1
@.str.7 = private unnamed_addr constant [3 x i8] c"rb\00", align 1
@.str.8 = private unnamed_addr constant [7 x i8] c"ppl|pl\00", align 1
@.str.9 = private unnamed_addr constant [24 x i8] c"Unable to open blob: %s\00", align 1
@.str.10 = private unnamed_addr constant [4 x i8] c"r+b\00", align 1

; Function Attrs: inlinehint nounwind uwtable
define internal ptr @php_pdo_dbh_fetch_inner(ptr noundef %0) #4 {
  %2 = alloca ptr, align 8
  store ptr %0, ptr %2, align 8, !tbaa !79
  %3 = load ptr, ptr %2, align 8, !tbaa !79
  %4 = getelementptr inbounds i8, ptr %3, i64 -8
  %5 = getelementptr inbounds nuw %struct._pdo_dbh_object_t, ptr %4, i32 0, i32 0
  %6 = load ptr, ptr %5, align 8, !tbaa !80
  ret ptr %6
}

; Function Attrs: nounwind uwtable
define hidden void @zim_Pdo_Sqlite_openBlob(ptr noundef %0, ptr noundef %1) #0 {
  %3 = alloca ptr, align 8
  %4 = alloca ptr, align 8
  %5 = alloca ptr, align 8
  %6 = alloca ptr, align 8
  %7 = alloca ptr, align 8
  %8 = alloca ptr, align 8
  %9 = alloca i64, align 8
  %10 = alloca i64, align 8
  %11 = alloca i64, align 8
  %12 = alloca i64, align 8
  %13 = alloca i64, align 8
  %14 = alloca i64, align 8
  %15 = alloca ptr, align 8
  %16 = alloca ptr, align 8
  %17 = alloca ptr, align 8
  %18 = alloca ptr, align 8
  %19 = alloca ptr, align 8
  %20 = alloca i32, align 4
  %21 = alloca ptr, align 8
  %22 = alloca ptr, align 8
  store ptr %0, ptr %3, align 8, !tbaa !14
  store ptr %1, ptr %4, align 8, !tbaa !16
  call void @llvm.lifetime.start.p0(i64 8, ptr %5) #12
  call void @llvm.lifetime.start.p0(i64 8, ptr %6) #12
  call void @llvm.lifetime.start.p0(i64 8, ptr %7) #12
  store ptr @.str.6, ptr %7, align 8, !tbaa !18
  call void @llvm.lifetime.start.p0(i64 8, ptr %8) #12
  store ptr @.str.7, ptr %8, align 8, !tbaa !18
  call void @llvm.lifetime.start.p0(i64 8, ptr %9) #12
  call void @llvm.lifetime.start.p0(i64 8, ptr %10) #12
  call void @llvm.lifetime.start.p0(i64 8, ptr %11) #12
  call void @llvm.lifetime.start.p0(i64 8, ptr %12) #12
  call void @llvm.lifetime.start.p0(i64 8, ptr %13) #12
  store i64 1, ptr %13, align 8, !tbaa !49
  call void @llvm.lifetime.start.p0(i64 8, ptr %14) #12
  store i64 0, ptr %14, align 8, !tbaa !49
  call void @llvm.lifetime.start.p0(i64 8, ptr %15) #12
  store ptr null, ptr %15, align 8, !tbaa !82
  call void @llvm.lifetime.start.p0(i64 8, ptr %16) #12
  call void @llvm.lifetime.start.p0(i64 8, ptr %17) #12
  call void @llvm.lifetime.start.p0(i64 8, ptr %18) #12
  call void @llvm.lifetime.start.p0(i64 8, ptr %19) #12
  %23 = load ptr, ptr %3, align 8, !tbaa !14
  %24 = getelementptr inbounds nuw %struct._zend_execute_data, ptr %23, i32 0, i32 4
  %25 = getelementptr inbounds nuw %struct._zval_struct, ptr %24, i32 0, i32 0
  %26 = load ptr, ptr %25, align 8, !tbaa !11
  %27 = call ptr @php_pdo_dbh_fetch_inner(ptr noundef %26)
  store ptr %27, ptr %18, align 8, !tbaa !50
  %28 = load ptr, ptr %18, align 8, !tbaa !50
  %29 = getelementptr inbounds nuw %struct._pdo_dbh_t, ptr %28, i32 0, i32 15
  %30 = load ptr, ptr %29, align 8, !tbaa !52
  %31 = icmp ne ptr %30, null
  br i1 %31, label %48, label %32

32:                                               ; preds = %2
  %33 = load ptr, ptr %3, align 8, !tbaa !14
  %34 = getelementptr inbounds nuw %struct._zend_execute_data, ptr %33, i32 0, i32 4
  %35 = getelementptr inbounds nuw %struct._zval_struct, ptr %34, i32 0, i32 0
  %36 = load ptr, ptr %35, align 8, !tbaa !11
  %37 = getelementptr inbounds nuw %struct._zend_object, ptr %36, i32 0, i32 3
  %38 = load ptr, ptr %37, align 8, !tbaa !56
  %39 = getelementptr inbounds nuw %struct._zend_class_entry, ptr %38, i32 0, i32 1
  %40 = load ptr, ptr %39, align 8, !tbaa !59
  %41 = getelementptr inbounds nuw %struct._zend_string, ptr %40, i32 0, i32 3
  %42 = getelementptr inbounds [1 x i8], ptr %41, i64 0, i64 0
  call void (ptr, ptr, ...) @zend_throw_error(ptr noundef null, ptr noundef @.str.4, ptr noundef %42)
  br label %43

43:                                               ; preds = %32
  %44 = load ptr, ptr getelementptr inbounds nuw (%struct._zend_executor_globals, ptr @executor_globals, i32 0, i32 54), align 8, !tbaa !20
  %45 = icmp ne ptr %44, null
  call void @llvm.assume(i1 %45)
  store i32 1, ptr %20, align 4
  br label %146

46:                                               ; No predecessors!
  br label %47

47:                                               ; preds = %46
  br label %48

48:                                               ; preds = %47, %2
  %49 = load ptr, ptr %18, align 8, !tbaa !50
  %50 = getelementptr inbounds nuw %struct._pdo_dbh_t, ptr %49, i32 0, i32 1
  %51 = load ptr, ptr %50, align 8, !tbaa !70
  store ptr %51, ptr %19, align 8, !tbaa !71
  %52 = load ptr, ptr %3, align 8, !tbaa !14
  %53 = getelementptr inbounds nuw %struct._zend_execute_data, ptr %52, i32 0, i32 4
  %54 = getelementptr inbounds nuw %struct._zval_struct, ptr %53, i32 0, i32 2
  %55 = load i32, ptr %54, align 4, !tbaa !11
  %56 = call i32 (i32, ptr, ...) @zend_parse_parameters(i32 noundef %55, ptr noundef @.str.8, ptr noundef %5, ptr noundef %9, ptr noundef %6, ptr noundef %10, ptr noundef %12, ptr noundef %7, ptr noundef %11, ptr noundef %13)
  %57 = icmp eq i32 %56, -1
  br i1 %57, label %58, label %64

58:                                               ; preds = %48
  br label %59

59:                                               ; preds = %58
  %60 = load ptr, ptr getelementptr inbounds nuw (%struct._zend_executor_globals, ptr @executor_globals, i32 0, i32 54), align 8, !tbaa !20
  %61 = icmp ne ptr %60, null
  call void @llvm.assume(i1 %61)
  store i32 1, ptr %20, align 4
  br label %146

62:                                               ; No predecessors!
  br label %63

63:                                               ; preds = %62
  br label %64

64:                                               ; preds = %63, %48
  call void @llvm.lifetime.start.p0(i64 8, ptr %21) #12
  %65 = load ptr, ptr %19, align 8, !tbaa !71
  %66 = getelementptr inbounds nuw %struct.pdo_sqlite_db_handle, ptr %65, i32 0, i32 0
  %67 = load ptr, ptr %66, align 8, !tbaa !72
  store ptr %67, ptr %21, align 8, !tbaa !78
  %68 = load i64, ptr %13, align 8, !tbaa !49
  %69 = and i64 %68, 2
  %70 = icmp ne i64 %69, 0
  %71 = select i1 %70, i32 1, i32 0
  %72 = sext i32 %71 to i64
  store i64 %72, ptr %14, align 8, !tbaa !49
  %73 = load ptr, ptr %21, align 8, !tbaa !78
  %74 = load ptr, ptr %7, align 8, !tbaa !18
  %75 = load ptr, ptr %5, align 8, !tbaa !18
  %76 = load ptr, ptr %6, align 8, !tbaa !18
  %77 = load i64, ptr %12, align 8, !tbaa !49
  %78 = load i64, ptr %14, align 8, !tbaa !49
  %79 = trunc i64 %78 to i32
  %80 = call i32 @sqlite3_blob_open(ptr noundef %73, ptr noundef %74, ptr noundef %75, ptr noundef %76, i64 noundef %77, i32 noundef %79, ptr noundef %15)
  %81 = icmp ne i32 %80, 0
  br i1 %81, label %82, label %93

82:                                               ; preds = %64
  %83 = load ptr, ptr %21, align 8, !tbaa !78
  %84 = call ptr @sqlite3_errmsg(ptr noundef %83)
  call void (i32, ptr, ...) @zend_error(i32 noundef 2, ptr noundef @.str.9, ptr noundef %84)
  br label %85

85:                                               ; preds = %82
  br label %86

86:                                               ; preds = %85
  %87 = load ptr, ptr %4, align 8, !tbaa !16
  %88 = getelementptr inbounds nuw %struct._zval_struct, ptr %87, i32 0, i32 1
  store i32 2, ptr %88, align 8, !tbaa !11
  br label %89

89:                                               ; preds = %86
  br label %90

90:                                               ; preds = %89
  store i32 1, ptr %20, align 4
  br label %145

91:                                               ; No predecessors!
  br label %92

92:                                               ; preds = %91
  br label %93

93:                                               ; preds = %92, %64
  %94 = call noalias ptr @_emalloc_32()
  store ptr %94, ptr %16, align 8, !tbaa !71
  %95 = load ptr, ptr %15, align 8, !tbaa !82
  %96 = load ptr, ptr %16, align 8, !tbaa !71
  %97 = getelementptr inbounds nuw %struct.php_stream_pdosqlite3_data, ptr %96, i32 0, i32 0
  store ptr %95, ptr %97, align 8, !tbaa !84
  %98 = load i64, ptr %13, align 8, !tbaa !49
  %99 = trunc i64 %98 to i32
  %100 = load ptr, ptr %16, align 8, !tbaa !71
  %101 = getelementptr inbounds nuw %struct.php_stream_pdosqlite3_data, ptr %100, i32 0, i32 3
  store i32 %99, ptr %101, align 8, !tbaa !86
  %102 = load ptr, ptr %16, align 8, !tbaa !71
  %103 = getelementptr inbounds nuw %struct.php_stream_pdosqlite3_data, ptr %102, i32 0, i32 1
  store i64 0, ptr %103, align 8, !tbaa !87
  %104 = load ptr, ptr %15, align 8, !tbaa !82
  %105 = call i32 @sqlite3_blob_bytes(ptr noundef %104)
  %106 = sext i32 %105 to i64
  %107 = load ptr, ptr %16, align 8, !tbaa !71
  %108 = getelementptr inbounds nuw %struct.php_stream_pdosqlite3_data, ptr %107, i32 0, i32 2
  store i64 %106, ptr %108, align 8, !tbaa !88
  %109 = load i64, ptr %14, align 8, !tbaa !49
  %110 = icmp ne i64 %109, 0
  br i1 %110, label %111, label %112

111:                                              ; preds = %93
  store ptr @.str.10, ptr %8, align 8, !tbaa !18
  br label %112

112:                                              ; preds = %111, %93
  %113 = load ptr, ptr %16, align 8, !tbaa !71
  %114 = load ptr, ptr %8, align 8, !tbaa !18
  %115 = call ptr @_php_stream_alloc(ptr noundef @php_stream_pdosqlite3_ops, ptr noundef %113, ptr noundef null, ptr noundef %114)
  store ptr %115, ptr %17, align 8, !tbaa !89
  %116 = load ptr, ptr %17, align 8, !tbaa !89
  %117 = icmp ne ptr %116, null
  br i1 %117, label %118, label %135

118:                                              ; preds = %112
  br label %119

119:                                              ; preds = %118
  call void @llvm.lifetime.start.p0(i64 8, ptr %22) #12
  %120 = load ptr, ptr %4, align 8, !tbaa !16
  store ptr %120, ptr %22, align 8, !tbaa !16
  %121 = load ptr, ptr %17, align 8, !tbaa !89
  %122 = getelementptr inbounds nuw %struct._php_stream, ptr %121, i32 0, i32 10
  %123 = load ptr, ptr %122, align 8, !tbaa !91
  %124 = load ptr, ptr %22, align 8, !tbaa !16
  %125 = getelementptr inbounds nuw %struct._zval_struct, ptr %124, i32 0, i32 0
  store ptr %123, ptr %125, align 8, !tbaa !11
  %126 = load ptr, ptr %22, align 8, !tbaa !16
  %127 = getelementptr inbounds nuw %struct._zval_struct, ptr %126, i32 0, i32 1
  store i32 265, ptr %127, align 8, !tbaa !11
  call void @llvm.lifetime.end.p0(i64 8, ptr %22) #12
  br label %128

128:                                              ; preds = %119
  br label %129

129:                                              ; preds = %128
  %130 = load ptr, ptr %17, align 8, !tbaa !89
  %131 = getelementptr inbounds nuw %struct._php_stream, ptr %130, i32 0, i32 7
  %132 = load i16, ptr %131, align 8
  %133 = and i16 %132, -17
  %134 = or i16 %133, 16
  store i16 %134, ptr %131, align 8
  br label %144

135:                                              ; preds = %112
  br label %136

136:                                              ; preds = %135
  br label %137

137:                                              ; preds = %136
  %138 = load ptr, ptr %4, align 8, !tbaa !16
  %139 = getelementptr inbounds nuw %struct._zval_struct, ptr %138, i32 0, i32 1
  store i32 2, ptr %139, align 8, !tbaa !11
  br label %140

140:                                              ; preds = %137
  br label %141

141:                                              ; preds = %140
  store i32 1, ptr %20, align 4
  br label %145

142:                                              ; No predecessors!
  br label %143

143:                                              ; preds = %142
  br label %144

144:                                              ; preds = %143, %129
  store i32 0, ptr %20, align 4
  br label %145

145:                                              ; preds = %144, %141, %90
  call void @llvm.lifetime.end.p0(i64 8, ptr %21) #12
  br label %146

146:                                              ; preds = %145, %59, %43
  call void @llvm.lifetime.end.p0(i64 8, ptr %19) #12
  call void @llvm.lifetime.end.p0(i64 8, ptr %18) #12
  call void @llvm.lifetime.end.p0(i64 8, ptr %17) #12
  call void @llvm.lifetime.end.p0(i64 8, ptr %16) #12
  call void @llvm.lifetime.end.p0(i64 8, ptr %15) #12
  call void @llvm.lifetime.end.p0(i64 8, ptr %14) #12
  call void @llvm.lifetime.end.p0(i64 8, ptr %13) #12
  call void @llvm.lifetime.end.p0(i64 8, ptr %12) #12
  call void @llvm.lifetime.end.p0(i64 8, ptr %11) #12
  call void @llvm.lifetime.end.p0(i64 8, ptr %10) #12
  call void @llvm.lifetime.end.p0(i64 8, ptr %9) #12
  call void @llvm.lifetime.end.p0(i64 8, ptr %8) #12
  call void @llvm.lifetime.end.p0(i64 8, ptr %7) #12
  call void @llvm.lifetime.end.p0(i64 8, ptr %6) #12
  call void @llvm.lifetime.end.p0(i64 8, ptr %5) #12
  %147 = load i32, ptr %20, align 4
  switch i32 %147, label %149 [
    i32 0, label %148
    i32 1, label %148
  ]

148:                                              ; preds = %146, %146
  ret void

149:                                              ; preds = %146
  unreachable
}