; Function Attrs: nounwind uwtable
define hidden void @zim_Pdo_Sqlite_openBlob(ptr noundef readonly captures(none) %0, ptr noundef writeonly captures(none) %1) #0 {
  %3 = alloca ptr, align 8
  %4 = alloca ptr, align 8
  %5 = alloca ptr, align 8
  %6 = alloca i64, align 8
  %7 = alloca i64, align 8
  %8 = alloca i64, align 8
  %9 = alloca i64, align 8
  %10 = alloca i64, align 8
  %11 = alloca ptr, align 8
  call void @llvm.lifetime.start.p0(i64 8, ptr nonnull %3) #11
  call void @llvm.lifetime.start.p0(i64 8, ptr nonnull %4) #11
  call void @llvm.lifetime.start.p0(i64 8, ptr nonnull %5) #11
  store ptr @.str.6, ptr %5, align 8, !tbaa !35
  call void @llvm.lifetime.start.p0(i64 8, ptr nonnull %6) #11
  call void @llvm.lifetime.start.p0(i64 8, ptr nonnull %7) #11
  call void @llvm.lifetime.start.p0(i64 8, ptr nonnull %8) #11
  call void @llvm.lifetime.start.p0(i64 8, ptr nonnull %9) #11
  call void @llvm.lifetime.start.p0(i64 8, ptr nonnull %10) #11
  store i64 1, ptr %10, align 8, !tbaa !63
  call void @llvm.lifetime.start.p0(i64 8, ptr nonnull %11) #11
  store ptr null, ptr %11, align 8, !tbaa !80
  %12 = getelementptr inbounds nuw i8, ptr %0, i64 32
  %13 = load ptr, ptr %12, align 8, !tbaa !30
  %14 = getelementptr i8, ptr %13, i64 -8
  %.val = load ptr, ptr %14, align 8, !tbaa !64
  %15 = getelementptr inbounds nuw i8, ptr %.val, i64 120
  %16 = load ptr, ptr %15, align 8, !tbaa !68
  %.not = icmp eq ptr %16, null
  br i1 %.not, label %17, label %25

17:                                               ; preds = %2
  %18 = getelementptr inbounds nuw i8, ptr %13, i64 16
  %19 = load ptr, ptr %18, align 8, !tbaa !72
  %20 = getelementptr inbounds nuw i8, ptr %19, i64 8
  %21 = load ptr, ptr %20, align 8, !tbaa !10
  %22 = getelementptr inbounds nuw i8, ptr %21, i64 24
  tail call void (ptr, ptr, ...) @zend_throw_error(ptr noundef null, ptr noundef nonnull @.str.4, ptr noundef nonnull %22) #11
  %23 = load ptr, ptr getelementptr inbounds nuw (i8, ptr @executor_globals, i64 960), align 8, !tbaa !37
  %24 = icmp ne ptr %23, null
  tail call void @llvm.assume(i1 %24)
  br label %68

25:                                               ; preds = %2
  %26 = getelementptr inbounds nuw i8, ptr %.val, i64 8
  %27 = load ptr, ptr %26, align 8, !tbaa !73
  %28 = getelementptr inbounds nuw i8, ptr %0, i64 44
  %29 = load i32, ptr %28, align 4, !tbaa !30
  %30 = call i32 (i32, ptr, ...) @zend_parse_parameters(i32 noundef %29, ptr noundef nonnull @.str.8, ptr noundef nonnull %3, ptr noundef nonnull %6, ptr noundef nonnull %4, ptr noundef nonnull %7, ptr noundef nonnull %9, ptr noundef nonnull %5, ptr noundef nonnull %8, ptr noundef nonnull %10) #11
  %31 = icmp eq i32 %30, -1
  br i1 %31, label %32, label %35

32:                                               ; preds = %25
  %33 = load ptr, ptr getelementptr inbounds nuw (i8, ptr @executor_globals, i64 960), align 8, !tbaa !37
  %34 = icmp ne ptr %33, null
  call void @llvm.assume(i1 %34)
  br label %68

35:                                               ; preds = %25
  %36 = load ptr, ptr %27, align 8, !tbaa !74
  %37 = load i64, ptr %10, align 8, !tbaa !63
  %38 = and i64 %37, 2
  %.lobit = lshr exact i64 %38, 1
  %39 = trunc nuw nsw i64 %.lobit to i32
  %40 = load ptr, ptr %5, align 8, !tbaa !35
  %41 = load ptr, ptr %3, align 8, !tbaa !35
  %42 = load ptr, ptr %4, align 8, !tbaa !35
  %43 = load i64, ptr %9, align 8, !tbaa !63
  %44 = call i32 @sqlite3_blob_open(ptr noundef %36, ptr noundef %40, ptr noundef %41, ptr noundef %42, i64 noundef %43, i32 noundef %39, ptr noundef nonnull %11) #11
  %.not25 = icmp eq i32 %44, 0
  br i1 %.not25, label %48, label %45

45:                                               ; preds = %35
  %46 = call ptr @sqlite3_errmsg(ptr noundef %36) #11
  call void (i32, ptr, ...) @zend_error(i32 noundef 2, ptr noundef nonnull @.str.9, ptr noundef %46) #11
  %47 = getelementptr inbounds nuw i8, ptr %1, i64 8
  store i32 2, ptr %47, align 8, !tbaa !30
  br label %68

48:                                               ; preds = %35
  %.not24.not = icmp eq i64 %38, 0
  %49 = call noalias ptr @_emalloc_32() #11
  %50 = load ptr, ptr %11, align 8, !tbaa !80
  store ptr %50, ptr %49, align 8, !tbaa !82
  %51 = load i64, ptr %10, align 8, !tbaa !63
  %52 = trunc i64 %51 to i32
  %53 = getelementptr inbounds nuw i8, ptr %49, i64 24
  store i32 %52, ptr %53, align 8, !tbaa !84
  %54 = getelementptr inbounds nuw i8, ptr %49, i64 8
  store i64 0, ptr %54, align 8, !tbaa !85
  %55 = call i32 @sqlite3_blob_bytes(ptr noundef %50) #11
  %56 = sext i32 %55 to i64
  %57 = getelementptr inbounds nuw i8, ptr %49, i64 16
  store i64 %56, ptr %57, align 8, !tbaa !86
  %spec.select = select i1 %.not24.not, ptr @.str.7, ptr @.str.10
  %58 = call ptr @_php_stream_alloc(ptr noundef nonnull @php_stream_pdosqlite3_ops, ptr noundef nonnull %49, ptr noundef null, ptr noundef nonnull %spec.select) #11
  %.not26 = icmp eq ptr %58, null
  br i1 %.not26, label %66, label %59

59:                                               ; preds = %48
  %60 = getelementptr inbounds nuw i8, ptr %58, i64 120
  %61 = load ptr, ptr %60, align 8, !tbaa !87
  store ptr %61, ptr %1, align 8, !tbaa !30
  %62 = getelementptr inbounds nuw i8, ptr %1, i64 8
  store i32 265, ptr %62, align 8, !tbaa !30
  %63 = getelementptr inbounds nuw i8, ptr %58, i64 96
  %64 = load i16, ptr %63, align 8
  %65 = or i16 %64, 16
  store i16 %65, ptr %63, align 8
  br label %68

66:                                               ; preds = %48
  %67 = getelementptr inbounds nuw i8, ptr %1, i64 8
  store i32 2, ptr %67, align 8, !tbaa !30
  br label %68

68:                                               ; preds = %45, %66, %59, %32, %17
  call void @llvm.lifetime.end.p0(i64 8, ptr nonnull %11) #11
  call void @llvm.lifetime.end.p0(i64 8, ptr nonnull %10) #11
  call void @llvm.lifetime.end.p0(i64 8, ptr nonnull %9) #11
  call void @llvm.lifetime.end.p0(i64 8, ptr nonnull %8) #11
  call void @llvm.lifetime.end.p0(i64 8, ptr nonnull %7) #11
  call void @llvm.lifetime.end.p0(i64 8, ptr nonnull %6) #11
  call void @llvm.lifetime.end.p0(i64 8, ptr nonnull %5) #11
  call void @llvm.lifetime.end.p0(i64 8, ptr nonnull %4) #11
  call void @llvm.lifetime.end.p0(i64 8, ptr nonnull %3) #11
  ret void
}